
uart.sram.elf:     file format elf32-littlearm


Disassembly of section .text:

20000000 <_start>:
20000000:	4802      	ldr	r0, [pc, #8]	; (2000000c <stacktop>)
20000002:	4685      	mov	sp, r0
20000004:	f000 f808 	bl	20000018 <notmain>
20000008:	e7fe      	b.n	20000008 <_start+0x8>
2000000a:	46c0      	nop			; (mov r8, r8)

2000000c <stacktop>:
2000000c:	20001000 	andcs	r1, r0, r0

20000010 <PUT32>:
20000010:	6001      	str	r1, [r0, #0]
20000012:	4770      	bx	lr

20000014 <GET32>:
20000014:	6800      	ldr	r0, [r0, #0]
20000016:	4770      	bx	lr

20000018 <notmain>:
20000018:	2212      	movs	r2, #18
2000001a:	4b4c      	ldr	r3, [pc, #304]	; (2000014c <notmain+0x134>)
2000001c:	b5f0      	push	{r4, r5, r6, r7, lr}
2000001e:	601a      	str	r2, [r3, #0]
20000020:	2280      	movs	r2, #128	; 0x80
20000022:	4b4b      	ldr	r3, [pc, #300]	; (20000150 <notmain+0x138>)
20000024:	0252      	lsls	r2, r2, #9
20000026:	6819      	ldr	r1, [r3, #0]
20000028:	430a      	orrs	r2, r1
2000002a:	2180      	movs	r1, #128	; 0x80
2000002c:	601a      	str	r2, [r3, #0]
2000002e:	0289      	lsls	r1, r1, #10
20000030:	681a      	ldr	r2, [r3, #0]
20000032:	420a      	tst	r2, r1
20000034:	d0fc      	beq.n	20000030 <notmain+0x18>
20000036:	22e0      	movs	r2, #224	; 0xe0
20000038:	6859      	ldr	r1, [r3, #4]
2000003a:	0352      	lsls	r2, r2, #13
2000003c:	430a      	orrs	r2, r1
2000003e:	605a      	str	r2, [r3, #4]
20000040:	2280      	movs	r2, #128	; 0x80
20000042:	6859      	ldr	r1, [r3, #4]
20000044:	0252      	lsls	r2, r2, #9
20000046:	430a      	orrs	r2, r1
20000048:	605a      	str	r2, [r3, #4]
2000004a:	2280      	movs	r2, #128	; 0x80
2000004c:	6859      	ldr	r1, [r3, #4]
2000004e:	0192      	lsls	r2, r2, #6
20000050:	430a      	orrs	r2, r1
20000052:	605a      	str	r2, [r3, #4]
20000054:	2280      	movs	r2, #128	; 0x80
20000056:	6859      	ldr	r1, [r3, #4]
20000058:	00d2      	lsls	r2, r2, #3
2000005a:	430a      	orrs	r2, r1
2000005c:	605a      	str	r2, [r3, #4]
2000005e:	2280      	movs	r2, #128	; 0x80
20000060:	6819      	ldr	r1, [r3, #0]
20000062:	0452      	lsls	r2, r2, #17
20000064:	430a      	orrs	r2, r1
20000066:	2180      	movs	r1, #128	; 0x80
20000068:	601a      	str	r2, [r3, #0]
2000006a:	4b39      	ldr	r3, [pc, #228]	; (20000150 <notmain+0x138>)
2000006c:	0489      	lsls	r1, r1, #18
2000006e:	681a      	ldr	r2, [r3, #0]
20000070:	420a      	tst	r2, r1
20000072:	d0fc      	beq.n	2000006e <notmain+0x56>
20000074:	2102      	movs	r1, #2
20000076:	2401      	movs	r4, #1
20000078:	2504      	movs	r5, #4
2000007a:	685a      	ldr	r2, [r3, #4]
2000007c:	4835      	ldr	r0, [pc, #212]	; (20000154 <notmain+0x13c>)
2000007e:	430a      	orrs	r2, r1
20000080:	605a      	str	r2, [r3, #4]
20000082:	699a      	ldr	r2, [r3, #24]
20000084:	4322      	orrs	r2, r4
20000086:	619a      	str	r2, [r3, #24]
20000088:	699a      	ldr	r2, [r3, #24]
2000008a:	432a      	orrs	r2, r5
2000008c:	619a      	str	r2, [r3, #24]
2000008e:	2280      	movs	r2, #128	; 0x80
20000090:	6999      	ldr	r1, [r3, #24]
20000092:	01d2      	lsls	r2, r2, #7
20000094:	430a      	orrs	r2, r1
20000096:	619a      	str	r2, [r3, #24]
20000098:	4a2f      	ldr	r2, [pc, #188]	; (20000158 <notmain+0x140>)
2000009a:	6851      	ldr	r1, [r2, #4]
2000009c:	4001      	ands	r1, r0
2000009e:	6051      	str	r1, [r2, #4]
200000a0:	21bb      	movs	r1, #187	; 0xbb
200000a2:	6850      	ldr	r0, [r2, #4]
200000a4:	0109      	lsls	r1, r1, #4
200000a6:	4301      	orrs	r1, r0
200000a8:	2080      	movs	r0, #128	; 0x80
200000aa:	6051      	str	r1, [r2, #4]
200000ac:	492b      	ldr	r1, [pc, #172]	; (2000015c <notmain+0x144>)
200000ae:	0180      	lsls	r0, r0, #6
200000b0:	68ce      	ldr	r6, [r1, #12]
200000b2:	4330      	orrs	r0, r6
200000b4:	60c8      	str	r0, [r1, #12]
200000b6:	68c8      	ldr	r0, [r1, #12]
200000b8:	60c8      	str	r0, [r1, #12]
200000ba:	6908      	ldr	r0, [r1, #16]
200000bc:	6108      	str	r0, [r1, #16]
200000be:	4828      	ldr	r0, [pc, #160]	; (20000160 <notmain+0x148>)
200000c0:	6088      	str	r0, [r1, #8]
200000c2:	2008      	movs	r0, #8
200000c4:	68ce      	ldr	r6, [r1, #12]
200000c6:	4306      	orrs	r6, r0
200000c8:	60ce      	str	r6, [r1, #12]
200000ca:	68ce      	ldr	r6, [r1, #12]
200000cc:	432e      	orrs	r6, r5
200000ce:	60ce      	str	r6, [r1, #12]
200000d0:	6999      	ldr	r1, [r3, #24]
200000d2:	4329      	orrs	r1, r5
200000d4:	6199      	str	r1, [r3, #24]
200000d6:	6999      	ldr	r1, [r3, #24]
200000d8:	4301      	orrs	r1, r0
200000da:	6199      	str	r1, [r3, #24]
200000dc:	2180      	movs	r1, #128	; 0x80
200000de:	699d      	ldr	r5, [r3, #24]
200000e0:	0149      	lsls	r1, r1, #5
200000e2:	4329      	orrs	r1, r5
200000e4:	6199      	str	r1, [r3, #24]
200000e6:	4b1f      	ldr	r3, [pc, #124]	; (20000164 <notmain+0x14c>)
200000e8:	4d1f      	ldr	r5, [pc, #124]	; (20000168 <notmain+0x150>)
200000ea:	6859      	ldr	r1, [r3, #4]
200000ec:	4029      	ands	r1, r5
200000ee:	6059      	str	r1, [r3, #4]
200000f0:	21c0      	movs	r1, #192	; 0xc0
200000f2:	685d      	ldr	r5, [r3, #4]
200000f4:	0289      	lsls	r1, r1, #10
200000f6:	4329      	orrs	r1, r5
200000f8:	6059      	str	r1, [r3, #4]
200000fa:	230f      	movs	r3, #15
200000fc:	6811      	ldr	r1, [r2, #0]
200000fe:	4399      	bics	r1, r3
20000100:	6011      	str	r1, [r2, #0]
20000102:	6811      	ldr	r1, [r2, #0]
20000104:	4301      	orrs	r1, r0
20000106:	6011      	str	r1, [r2, #0]
20000108:	2101      	movs	r1, #1
2000010a:	68d3      	ldr	r3, [r2, #12]
2000010c:	4323      	orrs	r3, r4
2000010e:	60d3      	str	r3, [r2, #12]
20000110:	6893      	ldr	r3, [r2, #8]
20000112:	4219      	tst	r1, r3
20000114:	d0fc      	beq.n	20000110 <notmain+0xf8>
20000116:	2480      	movs	r4, #128	; 0x80
20000118:	2780      	movs	r7, #128	; 0x80
2000011a:	2680      	movs	r6, #128	; 0x80
2000011c:	2583      	movs	r5, #131	; 0x83
2000011e:	2140      	movs	r1, #64	; 0x40
20000120:	4810      	ldr	r0, [pc, #64]	; (20000164 <notmain+0x14c>)
20000122:	4a0e      	ldr	r2, [pc, #56]	; (2000015c <notmain+0x144>)
20000124:	0524      	lsls	r4, r4, #20
20000126:	017f      	lsls	r7, r7, #5
20000128:	0576      	lsls	r6, r6, #21
2000012a:	052d      	lsls	r5, r5, #20
2000012c:	6903      	ldr	r3, [r0, #16]
2000012e:	433b      	orrs	r3, r7
20000130:	6103      	str	r3, [r0, #16]
20000132:	8823      	ldrh	r3, [r4, #0]
20000134:	6053      	str	r3, [r2, #4]
20000136:	6813      	ldr	r3, [r2, #0]
20000138:	4219      	tst	r1, r3
2000013a:	d0fc      	beq.n	20000136 <notmain+0x11e>
2000013c:	6903      	ldr	r3, [r0, #16]
2000013e:	3401      	adds	r4, #1
20000140:	4333      	orrs	r3, r6
20000142:	6103      	str	r3, [r0, #16]
20000144:	42ac      	cmp	r4, r5
20000146:	d1f1      	bne.n	2000012c <notmain+0x114>
20000148:	2000      	movs	r0, #0
2000014a:	bdf0      	pop	{r4, r5, r6, r7, pc}
2000014c:	40022000 	andmi	r2, r2, r0
20000150:	40021000 	andmi	r1, r2, r0
20000154:	fffff00f 			; <UNDEFINED> instruction: 0xfffff00f
20000158:	40010800 	andmi	r0, r1, r0, lsl #16
2000015c:	40013800 	andmi	r3, r1, r0, lsl #16
20000160:	00000271 	andeq	r0, r0, r1, ror r2
20000164:	40010c00 	andmi	r0, r1, r0, lsl #24
20000168:	fff0ffff 			; <UNDEFINED> instruction: 0xfff0ffff

Disassembly of section .ARM.attributes:

00000000 <.ARM.attributes>:
   0:	00002c41 	andeq	r2, r0, r1, asr #24
   4:	61656100 	cmnvs	r5, r0, lsl #2
   8:	01006962 	tsteq	r0, r2, ror #18
   c:	00000022 	andeq	r0, r0, r2, lsr #32
  10:	726f4305 	rsbvc	r4, pc, #335544320	; 0x14000000
  14:	2d786574 	cfldr64cs	mvdx6, [r8, #-464]!	; 0xfffffe30
  18:	0600304d 	streq	r3, [r0], -sp, asr #32
  1c:	094d070c 	stmdbeq	sp, {r2, r3, r8, r9, sl}^
  20:	14041201 	strne	r1, [r4], #-513	; 0xfffffdff
  24:	17011501 	strne	r1, [r1, -r1, lsl #10]
  28:	1a011803 	bne	4603c <_start-0x1ffb9fc4>
  2c:	Address 0x000000000000002c is out of bounds.


Disassembly of section .comment:

00000000 <.comment>:
   0:	3a434347 	bcc	10d0d24 <_start-0x1ef2f2dc>
   4:	35312820 	ldrcc	r2, [r1, #-2080]!	; 0xfffff7e0
   8:	2e30313a 	mrccs	1, 1, r3, cr0, cr10, {1}
   c:	30322d33 	eorscc	r2, r2, r3, lsr sp
  10:	302e3132 	eorcc	r3, lr, r2, lsr r1
  14:	29342d37 	ldmdbcs	r4!, {r0, r1, r2, r4, r5, r8, sl, fp, sp}
  18:	2e303120 	rsfcssp	f3, f0, f0
  1c:	20312e33 	eorscs	r2, r1, r3, lsr lr
  20:	31323032 	teqcc	r2, r2, lsr r0
  24:	31323630 	teqcc	r2, r0, lsr r6
  28:	65722820 	ldrbvs	r2, [r2, #-2080]!	; 0xfffff7e0
  2c:	7361656c 	cmnvc	r1, #108, 10	; 0x1b000000
  30:	Address 0x0000000000000030 is out of bounds.

